------- FILE toledo_atomchess_6502.asm LEVEL 1 PASS 2
      1  10000 ????						;
      2  10000 ????						; Toledo Atomchess 6502 for Atari VCS/2600
      3  10000 ????						;
      4  10000 ????						; by Óscar Toledo G. (nanochess)
      5  10000 ????						;
      6  10000 ????						; © Copyright 2017 Óscar Toledo Gutiérrez
      7  10000 ????						;
      8  10000 ????						; Creation date: Jan/02/2017. Ported from Toledo Atomchess x86.
      9  10000 ????						; Revision date: Jan/04/2017. Working board display logic and selection.
     10  10000 ????						; Revision date: Jan/05/2017. Avoid player to move non-white pieces or
     11  10000 ????						;			       bug when fire bounces. Now using another
     12  10000 ????						;			       color for black pieces. Small optimization.
     13  10000 ????						; Revision date: Jan/13/2017. Solved bug where it would answer with move
     14  10000 ????						;			       after checkmate. Some more comments.
     15  10000 ????						; Revision date: Jan/15/2017. Added size optimizations by Peter Ferrie,
     16  10000 ????						;			       19 bytes saved. Also I've optimized my
     17  10000 ????						;			       graphical/input interface for further 18
     18  10000 ????						;			       bytes.
     19  10000 ????						; Revision date: Jan/16/2017. Saved 2 bytes more in playfield setup for
     20  10000 ????						;			       squares (Ferrie). Taken note of which
     21  10000 ????						;			       instructions can trigger the oVerflow flag.
     22  10000 ????						;			       Now can be assembled for visual6502.org
     23  10000 ????						;
     24  10000 ????
     25  10000 ????				       processor	6502
     26  10000 ????
     27  10000 ????		00 00	    atari      =	$00	; Define this to create an Atari VCS/2600 game (1K ROM)
     28  10000 ????		00 01	    visual6502 =	$01	; Define this to create a Visual6502.org playable game.
     29  10000 ????
     30  10000 ????						;
     31  10000 ????						; Change this to your preference.
     32  10000 ????						;
     33  10000 ????		00 00	    mode       =	atari
     34  10000 ????
     35  10000 ????						; Features:
     36  10000 ????						; * Computer plays legal basic chess movements ;)
     37  10000 ????						; * Move with joystick, push button to select, push button to drop.
     38  10000 ????						; * Search depth of 2-ply
     39  10000 ????						; * Promotion of pawns only to queen.
     40  10000 ????						; * No castling
     41  10000 ????						; * No en passant.
     42  10000 ????						; * 1K self-contained size for Hackaday
     43  10000 ????						;
     44  10000 ????						; Assemble with dasm from http://dasm-dillon.sourceforge.net/ 
     45  10000 ????						; Tested with Stella from http://stella.sourceforge.net/
     46  10000 ????						; Tested in real Atari 2600 using Harmony cartridge.
     47  10000 ????						; Tested with online emulation from http://8bitworkshop.com/
     48  10000 ????						; Demostration video at https://www.youtube.com/watch?v=_Du4krvIl7o
     49  10000 ????
     50  10000 ????				       if	mode = atari
     51  10000 ????
     52  fc00					      org	$fc00
     53  fc00		       00 00	   VSYNC      =	$00	; 0000 00x0   Vertical Sync Set-Clear
     54  fc00		       00 01	   VBLANK     =	$01	; xx00 00x0   Vertical Blank Set-Clear
     55  fc00		       00 02	   WSYNC      =	$02	; ---- ----   Wait for Horizontal Blank
     56  fc00		       00 03	   RSYNC      =	$03	; ---- ----   Reset Horizontal Sync Counter
     57  fc00		       00 04	   NUSIZ0     =	$04	; 00xx 0xxx   Number-Size player/missile 0
     58  fc00		       00 05	   NUSIZ1     =	$05	; 00xx 0xxx   Number-Size player/missile 1
     59  fc00		       00 06	   COLUP0     =	$06	; xxxx xxx0   Color-Luminance Player 0
     60  fc00		       00 07	   COLUP1     =	$07	; xxxx xxx0   Color-Luminance Player 1
     61  fc00		       00 08	   COLUPF     =	$08	; xxxx xxx0   Color-Luminance Playfield
     62  fc00		       00 09	   COLUBK     =	$09	; xxxx xxx0   Color-Luminance Background
     63  fc00		       00 0a	   CTRLPF     =	$0a	; 00xx 0xxx   Control Playfield, Ball, Collisions
     64  fc00		       00 0b	   REFP0      =	$0b	; 0000 x000   Reflection Player 0
     65  fc00		       00 0c	   REFP1      =	$0c	; 0000 x000   Reflection Player 1
     66  fc00		       00 0d	   PF0	      =	$0d	; xxxx 0000   Playfield Register Byte 0
     67  fc00		       00 0e	   PF1	      =	$0e	; xxxx xxxx   Playfield Register Byte 1
     68  fc00		       00 0f	   PF2	      =	$0f	; xxxx xxxx   Playfield Register Byte 2
     69  fc00		       00 10	   RESP0      =	$10	; ---- ----   Reset Player 0
     70  fc00		       00 11	   RESP1      =	$11	; ---- ----   Reset Player 1
     71  fc00		       00 12	   RESM0      =	$12	; ---- ----   Reset Missle 0
     72  fc00		       00 13	   RESM1      =	$13	; ---- ----   Reset Missle 1
     73  fc00		       00 14	   RESBL      =	$14	; ---- ----   Reset Ball
     74  fc00		       00 15	   AUDC0      =	$15	; 0000 xxxx   Audio Control 0
     75  fc00		       00 16	   AUDC1      =	$16	; 0000 xxxx   Audio Control 1
     76  fc00		       00 17	   AUDF0      =	$17	; 000x xxxx   Audio Frequency 0
     77  fc00		       00 18	   AUDF1      =	$18	; 000x xxxx   Audio Frequency 1
     78  fc00		       00 19	   AUDV0      =	$19	; 0000 xxxx   Audio Volume 0
     79  fc00		       00 1a	   AUDV1      =	$1a	; 0000 xxxx   Audio Volume 1
     80  fc00		       00 1b	   GRP0       =	$1b	; xxxx xxxx   Graphics Register Player 0
     81  fc00		       00 1c	   GRP1       =	$1c	; xxxx xxxx   Graphics Register Player 1
     82  fc00		       00 1d	   ENAM0      =	$1d	; 0000 00x0   Graphics Enable Missile 0
     83  fc00		       00 1e	   ENAM1      =	$1e	; 0000 00x0   Graphics Enable Missile 1
     84  fc00		       00 1f	   ENABL      =	$1f	; 0000 00x0   Graphics Enable Ball
     85  fc00		       00 20	   HMP0       =	$20	; xxxx 0000   Horizontal Motion Player 0
     86  fc00		       00 21	   HMP1       =	$21	; xxxx 0000   Horizontal Motion Player 1
     87  fc00		       00 22	   HMM0       =	$22	; xxxx 0000   Horizontal Motion Missile 0
     88  fc00		       00 23	   HMM1       =	$23	; xxxx 0000   Horizontal Motion Missile 1
     89  fc00		       00 24	   HMBL       =	$24	; xxxx 0000   Horizontal Motion Ball
     90  fc00		       00 25	   VDELP0     =	$25	; 0000 000x   Vertical Delay Player 0
     91  fc00		       00 26	   VDELP1     =	$26	; 0000 000x   Vertical Delay Player 1
     92  fc00		       00 27	   VDELBL     =	$27	; 0000 000x   Vertical Delay Ball
     93  fc00		       00 28	   RESMP0     =	$28	; 0000 00x0   Reset Missile 0 to Player 0
     94  fc00		       00 29	   RESMP1     =	$29	; 0000 00x0   Reset Missile 1 to Player 1
     95  fc00		       00 2a	   HMOVE      =	$2a	; ---- ----   Apply Horizontal Motion
     96  fc00		       00 2b	   HMCLR      =	$2b	; ---- ----   Clear Horizontal Move Registers
     97  fc00		       00 2c	   CXCLR      =	$2c	; ---- ----   Clear Collision Latches
     98  fc00
     99  fc00		       00 00	   CXM0P      =	$00	; xx00 0000	   Read Collision  M0-P1   M0-P0
    100  fc00		       00 01	   CXM1P      =	$01	; xx00 0000			   M1-P0   M1-P1
    101  fc00		       00 02	   CXP0FB     =	$02	; xx00 0000			   P0-PF   P0-BL
    102  fc00		       00 03	   CXP1FB     =	$03	; xx00 0000			   P1-PF   P1-BL
    103  fc00		       00 04	   CXM0FB     =	$04	; xx00 0000			   M0-PF   M0-BL
    104  fc00		       00 05	   CXM1FB     =	$05	; xx00 0000			   M1-PF   M1-BL
    105  fc00		       00 06	   CXBLPF     =	$06	; x000 0000			   BL-PF   -----
    106  fc00		       00 07	   CXPPMM     =	$07	; xx00 0000			   P0-P1   M0-M1
    107  fc00		       00 08	   INPT0      =	$08	; x000 0000	   Read Pot Port 0
    108  fc00		       00 09	   INPT1      =	$09	; x000 0000	   Read Pot Port 1
    109  fc00		       00 0a	   INPT2      =	$0a	; x000 0000	   Read Pot Port 2
    110  fc00		       00 0b	   INPT3      =	$0b	; x000 0000	   Read Pot Port 3
    111  fc00		       00 0c	   INPT4      =	$0c	; x000 0000	   Read Input (Trigger) 0
    112  fc00		       00 0d	   INPT5      =	$0d	; x000 0000	   Read Input (Trigger) 1
    113  fc00
    114  fc00							; RIOT MEMORY MAP
    115  fc00
    116  fc00		       02 80	   SWCHA      =	$280	; Port A data register for joysticks:
    117  fc00							; Bits 4-7 for player 1.  Bits 0-3 for player 2.
    118  fc00		       02 81	   SWACNT     =	$281	; Port A data direction register (DDR)
    119  fc00		       02 82	   SWCHB      =	$282	; Port B data (console switches)
    120  fc00		       02 83	   SWBCNT     =	$283	; Port B DDR
    121  fc00		       02 84	   INTIM      =	$284	; Timer output
    122  fc00
    123  fc00		       02 85	   TIMINT     =	$285
    124  fc00
    125  fc00		       02 94	   TIM1T      =	$294	; set 1 clock interval
    126  fc00		       02 95	   TIM8T      =	$295	; set 8 clock interval
    127  fc00		       02 96	   TIM64T     =	$296	; set 64 clock interval
    128  fc00		       02 97	   T1024T     =	$297	; set 1024 clock interval
    129  fc00
    130  fc00							;
    131  fc00							; These are colors for NTSC video, change for PAL
    132  fc00							;
    133  fc00		       00 0e	   color_white =	$0e	; Color for white pieces
    134  fc00		       00 28	   color_black =	$28	; Color for black pieces
    135  fc00		       00 74	   color_white_square =	$74	; Color for white squares
    136  fc00		       00 70	   color_black_square =	$70	; Color for black squares
    137  fc00
    138  fc00				  -	      else
    139  fc00				  -	      org	$0100
    140  fc00					      endif
    141  fc00
    142  fc00		       00 80	   score      =	$80	; Current score
    143  fc00		       00 81	   side       =	$81	; Current side
    144  fc00		       00 82	   offset     =	$82	; Current offset
    145  fc00		       00 83	   total      =	$83	; Current total
    146  fc00		       00 84	   origin     =	$84	; Current origin square
    147  fc00		       00 85	   target     =	$85	; Current target square
    148  fc00
    149  fc00		       00 86	   frame      =	$86	; Current frame
    150  fc00
    151  fc00		       00 87	   cursorx    =	$87	; Current X position of cursor
    152  fc00		       00 88	   cursory    =	$88	; Current Y position of cursor
    153  fc00
    154  fc00		       00 89	   pSWCHA     =	$89	; Previous value of SWCHA
    155  fc00		       00 8a	   pINPT4     =	$8A	; Previous value of INPT4
    156  fc00
    157  fc00							; Reused locations
    158  fc00		       00 82	   bitmap0    =	$82	; Index into bitmap (0)
    159  fc00		       00 83	   bitmap1    =	$83	; Index into bitmap (1)
    160  fc00		       00 80	   even       =	$80	; Marks even/odd
    161  fc00
    162  fc00		       00 8c	   board      =	$8c	; 78 bytes used, there should be space for 12+12+10 bytes of stack
    163  fc00
    164  fc00				   START
    165  fc00		       78		      sei		; Disable interruptions
    166  fc01		       d8		      cld		; Disable decimal mode
    167  fc02					      if	mode = atari
    168  fc02							; Clean up the memory
    169  fc02		       a9 00		      lda	#0	; Load zero in accumulator
    170  fc04		       aa		      tax		; ...copy in X
    171  fc05		       95 00	   sr0	      sta	0,X	; Save in address 0 plus X
    172  fc07		       9a		      txs		; Copy X in S (stack) last value will be $ff
    173  fc08		       e8		      inx		; Increment X
    174  fc09		       d0 fa		      bne	sr0	; Repeat until X is zero.
    175  fc0b
    176  fc0b		       8d 81 02 	      sta	SWACNT	; Allow to read joysticks
    177  fc0e		       8d 83 02 	      sta	SWBCNT	; Allow to read buttons
    178  fc11							;	 ldx #0       ; x is zero
    179  fc11				  -	      else
    180  fc11				  -			; Clean up the memory
    181  fc11				  -	      ldx	#$ff
    182  fc11				  -	      txs
    183  fc11				  -	      lda	#$00	; Load zero in accumulator
    184  fc11				  -	      ldx	#$80	; ...copy in X
    185  fc11				  -sr0	      sta	0,X	; Save in address 0 plus X
    186  fc11				  -	      inx		; Increment X
    187  fc11				  -	      cpx	#$8c
    188  fc11				  -	      bne	sr0	; Repeat until X is zero.
    189  fc11				  -	      tax		; x is zero
    190  fc11					      endif
    191  fc11
    192  fc11		       a0 08	   sr1	      ldy	#8
    193  fc13		       a9 00	   sr3	      lda	#$00
    194  fc15		       95 8c		      sta	board,x
    195  fc17		       e8		      inx
    196  fc18		       88		      dey
    197  fc19		       d0 f8		      bne	sr3
    198  fc1b		       a9 07		      lda	#$07
    199  fc1d		       95 8c		      sta	board,x
    200  fc1f		       e8		      inx
    201  fc20		       95 8c		      sta	board,x
    202  fc22		       e8		      inx
    203  fc23		       e0 50		      cpx	#8*10
    204  fc25		       d0 ea		      bne	sr1
    205  fc27		       aa		      tax		; a was $07, so x = $07
    206  fc28		       bd bf ff    sr2	      lda	initial,x
    207  fc2b		       95 8c		      sta	board,x
    208  fc2d		       09 08		      ora	#$08
    209  fc2f		       95 d2		      sta	board+70,x
    210  fc31		       f6 96		      inc	board+10,x
    211  fc33		       a9 09		      lda	#$09
    212  fc35		       95 c8		      sta	board+60,x
    213  fc37		       ca		      dex
    214  fc38		       10 ee		      bpl	sr2
    215  fc3a		       4a		      lsr		; lda #4, but A was $09 / 2 = $04
    216  fc3b		       85 87		      sta	cursorx
    217  fc3d		       85 88		      sta	cursory
    218  fc3f
    219  fc3f							;
    220  fc3f							; Main loop
    221  fc3f							;
    222  fc3f				   sr21
    223  fc3f					      if	mode = atari
    224  fc3f				  -	      else
    225  fc3f				  -	      jsr	kernel
    226  fc3f					      endif
    227  fc3f		       20 47 ff 	      jsr	read_coor
    228  fc42		       b9 8c 00 	      lda	board,y
    229  fc45		       29 08		      and	#8	; Check for white piece
    230  fc47		       f0 f6		      beq	sr21	; If no, jump and restart selection logic
    231  fc49		       20 47 ff    sr11       jsr	read_coor
    232  fc4c		       b9 8c 00 	      lda	board,y
    233  fc4f		       29 08		      and	#8	; Check for white piece
    234  fc51		       d0 f6		      bne	sr11	; If yes, restart target square logic
    235  fc53		       20 87 fc 	      jsr	sr28	; Make movement
    236  fc56					      if	mode = atari
    237  fc56		       a2 3f		      ldx	#63
    238  fc58		       8a	   kn0	      txa
    239  fc59		       4a		      lsr
    240  fc5a		       4a		      lsr
    241  fc5b		       85 19		      sta	AUDV0
    242  fc5d		       8a		      txa
    243  fc5e		       48		      pha
    244  fc5f		       20 a4 fd 	      jsr	kernel
    245  fc62		       68		      pla
    246  fc63		       aa		      tax
    247  fc64		       ca		      dex
    248  fc65		       d0 f1		      bne	kn0
    249  fc67				  -	      else
    250  fc67				  -	      jsr	kernel
    251  fc67					      endif
    252  fc67		       20 a3 fc 	      jsr	play	; Computer play
    253  fc6a		       4c 3f fc 	      jmp	sr21
    254  fc6d
    255  fc6d		       e6 82	   sr14       inc	offset
    256  fc6f		       c6 83		      dec	total
    257  fc71		       d0 58		      bne	sr12
    258  fc73		       e8	   sr17       inx
    259  fc74		       e0 4e		      cpx	#78
    260  fc76		       d0 33		      bne	sr7
    261  fc78		       68		      pla
    262  fc79		       a8		      tay
    263  fc7a		       68		      pla
    264  fc7b		       ba		      tsx
    265  fc7c		       e0 fd		      cpx	#$ff-2	; Top call? (2 bytes of return address)
    266  fc7e		       d0 22		      bne	sr24
    267  fc80		       a6 80		      ldx	score
    268  fc82		       e0 d3		      cpx	#$c0+19	; Illegal move? (always in check)
    269  fc84		       30 1c		      bmi	sr24	; Yes, doesn't move
    270  fc86		       aa		      tax
    271  fc87		       b5 8c	   sr28       lda	board,x	; Do move
    272  fc89		       c9 01		      cmp	#1
    273  fc8b		       f0 04		      beq	sr32
    274  fc8d		       c9 09		      cmp	#9	; Is it pawn?
    275  fc8f		       d0 0a		      bne	sr30
    276  fc91		       c0 0a	   sr32       cpy	#10	; Reaching border?
    277  fc93		       90 04		      bcc	sr31
    278  fc95		       c0 46		      cpy	#70
    279  fc97		       90 02		      bcc	sr30
    280  fc99		       49 05	   sr31       eor	#5	; Make it queen
    281  fc9b		       99 8c 00    sr30       sta	board,y
    282  fc9e		       a9 00		      lda	#0	; Clear origin square
    283  fca0		       95 8c		      sta	board,x
    284  fca2		       60	   sr24       rts
    285  fca3
    286  fca3							;
    287  fca3							; Computer plays :)
    288  fca3							;
    289  fca3		       a9 c0	   play       lda	#$c0	; Current score (-64)
    290  fca5		       85 80		      sta	score
    291  fca7		       48		      pha		; Origin square of best movement (currently none)
    292  fca8		       48		      pha		; Target square of best movement
    293  fca9		       a2 00		      ldx	#0	; x points to current square
    294  fcab		       b5 8c	   sr7	      lda	board,x	; Read square
    295  fcad		       f0 c4		      beq	sr17	; Ignore if empty square
    296  fcaf		       45 81		      eor	side	; XOR with current playing side
    297  fcb1		       c9 07		      cmp	#7	; Ignore if frontier
    298  fcb3		       b0 be		      bcs	sr17
    299  fcb5		       c9 01		      cmp	#1	; Is it pawn?
    300  fcb7		       d0 06		      bne	sr25	; Carry will be 1 always because 1<=A<=6
    301  fcb9		       a4 81		      ldy	side	; Is it playing black?
    302  fcbb		       f0 02		      beq	sr25	; Yes, jump
    303  fcbd		       a9 00		      lda	#0	; Make it zero for white
    304  fcbf		       a8	   sr25       tay
    305  fcc0		       69 03		      adc	#3	; Adds 4 because carry is 1 (see above)
    306  fcc2		       29 0c		      and	#$0c
    307  fcc4		       85 83		      sta	total	; Total movements of piece
    308  fcc6		       b9 cd ff 	      lda	offsets,y
    309  fcc9		       85 82		      sta	offset	; Next offset for movement
    310  fccb		       86 85	   sr12       stx	target	; Restart target square
    311  fccd		       a4 82	   sr9	      ldy	offset
    312  fccf		       b9 d4 ff 	      lda	displacement,y
    313  fcd2		       18		      clc
    314  fcd3		       65 85		      adc	target	; Next target square
    315  fcd5		       c9 4e		      cmp	#78	; Out of board?
    316  fcd7		       b0 94		      bcs	sr14
    317  fcd9		       85 85		      sta	target
    318  fcdb
    319  fcdb		       c0 10		      cpy	#16
    320  fcdd		       a8		      tay
    321  fcde		       b9 8c 00 	      lda	board,y	; Content of target square
    322  fce1		       f0 26		      beq	sr10	; Jump if empty square
    323  fce3		       90 06		      bcc	sr27	; Jump if isn't not pawn
    324  fce5		       a5 83		      lda	total
    325  fce7		       c9 03		      cmp	#3	; Straight?
    326  fce9		       90 88		      bcc	sr17	; Yes, avoid and cancels any double square movement
    327  fceb		       b9 8c 00    sr27       lda	board,y
    328  fcee		       45 81		      eor	side
    329  fcf0		       38		      sec
    330  fcf1		       e9 09		      sbc	#9	; Valid capture?
    331  fcf3		       c9 06		      cmp	#6
    332  fcf5		       b0 1a		      bcs	sr29	; No, avoid (too far for sr18, use sr29 as bridge)
    333  fcf7		       c9 05		      cmp	#5
    334  fcf9		       d0 23		      bne	sr20	; Jump if not captured king
    335  fcfb		       68		      pla		; Ignore values
    336  fcfc		       68		      pla
    337  fcfd		       ba		      tsx
    338  fcfe		       a9 2d		      lda	#$3f-18	; Maximum score minus two queens...
    339  fd00		       e0 f1		      cpx	#$f1	; ...if not in first response.
    340  fd02		       d0 02		      bne	sr26
    341  fd04		       a9 3f		      lda	#$3f	; Maximum score (probably checkmate/stalemate)
    342  fd06		       85 80	   sr26       sta	score
    343  fd08		       60		      rts
    344  fd09
    345  fd09		       90 13	   sr10       bcc	sr20	; If isn't pawn, jump.
    346  fd0b		       a5 83		      lda	total
    347  fd0d		       c9 02		      cmp	#2	; Diagonal?
    348  fd0f		       f0 04		      beq	sr15	; Jump if one square ahead
    349  fd11		       b0 7a	   sr29       bcs	sr18	; Yes, avoid
    350  fd13		       90 09		      bcc	sr20
    351  fd15
    352  fd15		       8a	   sr15       txa
    353  fd16							;sec		 ; Carry set already because equality comparison
    354  fd16		       e9 14		      sbc	#20
    355  fd18		       c9 28		      cmp	#40	; Moving from center of board?
    356  fd1a		       b0 02		      bcs	sr20
    357  fd1c		       c6 83		      dec	total	; Yes, then avoid checking for two squares
    358  fd1e							;bcc sr20	 ; Fall along
    359  fd1e
    360  fd1e							; Save all state
    361  fd1e		       a5 82	   sr20       lda	offset	; Offset for movement
    362  fd20		       48		      pha
    363  fd21		       a5 83		      lda	total	; Total directions left
    364  fd23		       48		      pha
    365  fd24		       b9 8c 00 	      lda	board,y	; Content of target square
    366  fd27		       48		      pha
    367  fd28		       98		      tya		; Target square
    368  fd29		       48		      pha
    369  fd2a		       b5 8c		      lda	board,x	; Content of origin square
    370  fd2c		       48		      pha
    371  fd2d		       8a		      txa		; Origin square
    372  fd2e		       85 84		      sta	origin
    373  fd30		       48		      pha
    374  fd31		       b9 8c 00 	      lda	board,y
    375  fd34		       29 07		      and	#7
    376  fd36		       a8		      tay
    377  fd37		       b9 c7 ff 	      lda	scores,y	; Score for capture
    378  fd3a		       ba		      tsx
    379  fd3b					      if	mode = atari
    380  fd3b		       e0 e2		      cpx	#255-10*3+1	; Depth limit (2-ply)
    381  fd3d				  -	      else
    382  fd3d				  -	      cpx	#255-10*2+1	; Depth limit (1-ply)
    383  fd3d					      endif
    384  fd3d		       90 22		      bcc	sr22
    385  fd3f		       48		      pha
    386  fd40		       a5 80		      lda	score	; Current score
    387  fd42		       48		      pha
    388  fd43		       a6 84		      ldx	origin
    389  fd45		       a4 85		      ldy	target
    390  fd47		       20 87 fc 	      jsr	sr28	; Do move
    391  fd4a		       a5 81		      lda	side
    392  fd4c		       49 08		      eor	#8	; Change side
    393  fd4e		       85 81		      sta	side
    394  fd50		       20 a3 fc 	      jsr	play
    395  fd53		       a5 81		      lda	side
    396  fd55		       49 08		      eor	#8	; Change side
    397  fd57		       85 81		      sta	side
    398  fd59		       68		      pla
    399  fd5a		       aa		      tax		; Current score in x
    400  fd5b		       68		      pla
    401  fd5c		       38		      sec		; Take capture score and substract adversary score
    402  fd5d		       e5 80		      sbc	score
    403  fd5f		       86 80		      stx	score	; Restore current score
    404  fd61		       c5 80	   sr22       cmp	score	; Better score?
    405  fd63		       18		      clc
    406  fd64		       30 0c		      bmi	sr23	; No, jump
    407  fd66		       d0 07		      bne	sr33	; Better score? yes, jump
    408  fd68		       a5 86		      lda	frame	; Equal score, randomize move
    409  fd6a		       6a		      ror
    410  fd6b		       6a		      ror
    411  fd6c		       4c 72 fd 	      jmp	sr23	; No need to update score but carry = 1 will update move
    412  fd6f							;bcc sr23
    413  fd6f							;bcs sr23
    414  fd6f		       85 80	   sr33       sta	score	; Update score
    415  fd71		       38		      sec
    416  fd72		       68	   sr23       pla		; Restore board
    417  fd73		       aa		      tax
    418  fd74		       68		      pla
    419  fd75		       95 8c		      sta	board,x
    420  fd77		       68		      pla
    421  fd78		       85 85		      sta	target
    422  fd7a		       a8		      tay
    423  fd7b		       68		      pla
    424  fd7c		       99 8c 00 	      sta	board,y
    425  fd7f		       68		      pla
    426  fd80		       85 83		      sta	total
    427  fd82		       68		      pla
    428  fd83		       85 82		      sta	offset
    429  fd85		       90 06		      bcc	sr18
    430  fd87		       68		      pla
    431  fd88		       68		      pla
    432  fd89		       8a		      txa		; Save current best movement
    433  fd8a		       48		      pha
    434  fd8b		       98		      tya
    435  fd8c		       48		      pha
    436  fd8d
    437  fd8d		       b5 8c	   sr18       lda	board,x
    438  fd8f		       29 07		      and	#7
    439  fd91		       c9 01		      cmp	#1	; Was it pawn?
    440  fd93		       f0 0c		      beq	sr16	; Yes, end sequence, choose next movement
    441  fd95		       c9 05		      cmp	#5	; Knight or king?
    442  fd97		       b0 08		      bcs	sr16	; End sequence, choose next movement
    443  fd99		       b9 8c 00 	      lda	board,y	; To empty square?
    444  fd9c		       d0 03		      bne	sr16
    445  fd9e		       4c cd fc 	      jmp	sr9	; Yes, follow line of squares
    446  fda1
    447  fda1		       4c 6d fc    sr16       jmp	sr14
    448  fda4
    449  fda4					      if	mode = atari
    450  fda4							;
    451  fda4							; Set object in X
    452  fda4							; A = X position
    453  fda4							; First arg = Object to position (0=P0, 1=P1, 2=M0, 3=M1, 4=BALL)
    454  fda4							; Exits with carry = 0, it can set V flag for X >= 128
    455  fda4							;
    456  fda4					      MAC	set_x_position
    457  fda4					      sta	WSYNC	; 0- Start line synchro
    458  fda4					      sec		; 2- Set carry flag (avoids it in loop)
    459  fda4				   .AE2       sbc	#15	; 4- Uses required time dividing A by 15
    460  fda4					      bcs	.AE2	; 6/7 - 11/16/21/26/31/36/41/46/51/56/61/66
    461  fda4					      tay		; 8
    462  fda4					      lda	fine_adjustment-$f1,y	; 13 - Eats 5 cycles crossing page
    463  fda4					      sta	HMP0+{1}
    464  fda4					      nop
    465  fda4					      sta	RESP0+{1}	; 21/26/31/36/41/46/51/56/61/66/71 - "big" positioning
    466  fda4					      ENDM
    467  fda4
    468  fda4							;
    469  fda4							; Display kernel
    470  fda4							;
    471  fda4				   kernel
    472  fda4		       a9 00		      lda	#$00
    473  fda6		       85 09		      sta	COLUBK	; Background color
    474  fda8
    475  fda8							; VERTICAL_SYNC
    476  fda8		       a2 02		      ldx	#2
    477  fdaa		       86 00		      stx	VSYNC	; Start vertical synchro
    478  fdac		       86 02		      stx	WSYNC	; Wait for 3 lines
    479  fdae		       86 02		      stx	WSYNC
    480  fdb0		       86 02		      stx	WSYNC
    481  fdb2							;
    482  fdb2		       a2 2b		      ldx	#43
    483  fdb4		       8e 96 02 	      stx	TIM64T
    484  fdb7		       85 00		      sta	VSYNC	; Stop vertical synchro
    485  fdb9		       85 1b		      sta	GRP0
    486  fdbb		       85 1c		      sta	GRP1
    487  fdbd		       a9 70		      lda	#color_black_square
    488  fdbf		       85 09		      sta	COLUBK	; Background color
    489  fdc1		       a9 35		      lda	#$35
    490  fdc3		       85 04		      sta	NUSIZ0	; Size of player/missile 0
    491  fdc5		       85 05		      sta	NUSIZ1	; Size of player/missile 1
    492  fdc7		       a9 74		      lda	#color_white_square
    493  fdc9		       85 08		      sta	COLUPF	; Color of playfield
    494  fdcb		       a5 87		      lda	cursorx	; Get X-position of cursor and set up missile 0
    495  fdcd		       0a		      asl
    496  fdce		       0a		      asl
    497  fdcf		       85 80		      sta	even
    498  fdd1		       0a		      asl
    499  fdd2		       0a		      asl
    500  fdd3		       65 80		      adc	even	; Can set V flag for eighth square (cursorx = 7)
    501  fdd5		       69 0e		      adc	#14
    502  fdd7		       c9 0e		      cmp	#14
    503  fdd9		       d0 02		      bne	*+4
    504  fddb		       e9 03		      sbc	#3
      0  fddd					      set_x_position	2
      1  fddd		       85 02		      sta	WSYNC
      2  fddf		       38		      sec
      3  fde0		       e9 0f	   .AE2       sbc	#15
      4  fde2		       b0 fc		      bcs	.AE2
      5  fde4		       a8		      tay
      6  fde5		       b9 0f fe 	      lda	fine_adjustment-$f1,y
      7  fde8		       85 22		      sta	HMP0+2
      8  fdea		       ea		      nop
      9  fdeb		       85 12		      sta	RESP0+2
    506  fded		       a5 86		      lda	frame	; Update 2 columns of chessboard per frame
    507  fdef		       29 03		      and	#3
    508  fdf1		       0a		      asl
    509  fdf2		       0a		      asl
    510  fdf3		       85 80		      sta	even
    511  fdf5		       0a		      asl
    512  fdf6		       0a		      asl
    513  fdf7		       65 80		      adc	even
    514  fdf9		       aa		      tax		; One column for player 0
    515  fdfa		       d0 02		      bne	*+4
    516  fdfc		       e9 02		      sbc	#2
    517  fdfe		       69 08		      adc	#8
      0  fe00					      set_x_position	0
      1  fe00		       85 02		      sta	WSYNC
      2  fe02		       38		      sec
      3  fe03		       e9 0f	   .AE2       sbc	#15
      4  fe05		       b0 fc		      bcs	.AE2
      5  fe07		       a8		      tay
      6  fe08		       b9 0f fe 	      lda	fine_adjustment-$f1,y
      7  fe0b		       85 20		      sta	HMP0+0
      8  fe0d		       ea		      nop
      9  fe0e		       85 10		      sta	RESP0+0
    519  fe10		       8a		      txa
    520  fe11							;clc		 ; Carry zero already
    521  fe11		       69 58		      adc	#88	; One column for player 1, can set V flag
      0  fe13					      set_x_position	1
      1  fe13		       85 02		      sta	WSYNC
      2  fe15		       38		      sec
      3  fe16		       e9 0f	   .AE2       sbc	#15
      4  fe18		       b0 fc		      bcs	.AE2
      5  fe1a		       a8		      tay
      6  fe1b		       b9 0f fe 	      lda	fine_adjustment-$f1,y
      7  fe1e		       85 21		      sta	HMP0+1
      8  fe20		       ea		      nop
      9  fe21		       85 11		      sta	RESP0+1
    523  fe23		       85 02		      sta	WSYNC
    524  fe25		       85 2a		      sta	HMOVE	; Fine adjustment for all set_x_position
    525  fe27
    526  fe27				   wait_vblank
    527  fe27		       ad 84 02 	      lda	INTIM
    528  fe2a		       d0 fb		      bne	wait_vblank
    529  fe2c							;
    530  fe2c							; Start of graphics
    531  fe2c							;
    532  fe2c		       85 02		      sta	WSYNC
    533  fe2e		       85 01		      sta	VBLANK
    534  fe30		       85 80		      sta	even	; Now uses like row counter, start at zero
    535  fe32		       a5 86		      lda	frame	; Board position per frame
    536  fe34		       29 03		      and	#3
    537  fe36		       aa	   ds0	      tax
    538  fe37		       85 02	   ds1	      sta	WSYNC	; Row 0
    539  fe39		       a5 80		      lda	even	; Squares configuration over board
    540  fe3b		       4a		      lsr
    541  fe3c		       90 0a		      bcc	ds6
    542  fe3e		       a9 00		      lda	#$00
    543  fe40		       85 0d		      sta	PF0
    544  fe42		       a0 7c		      ldy	#$7c
    545  fe44		       a9 f8		      lda	#$f8
    546  fe46		       d0 08		      bne	ds7
    547  fe48
    548  fe48		       a9 f0	   ds6	      lda	#$f0
    549  fe4a		       85 0d		      sta	PF0
    550  fe4c		       a0 83		      ldy	#$83
    551  fe4e		       a9 07		      lda	#$07
    552  fe50		       84 0e	   ds7	      sty	PF1
    553  fe52		       85 0f		      sta	PF2
    554  fe54		       b5 8c		      lda	board,x	; Check color for the two pieces
    555  fe56		       29 08		      and	#8
    556  fe58		       f0 02		      beq	ds4
    557  fe5a		       a9 26		      lda	#color_white^color_black	; White for white pieces
    558  fe5c		       49 28	   ds4	      eor	#color_black	; Green for black pieces
    559  fe5e		       85 06		      sta	COLUP0
    560  fe60		       b5 90		      lda	board+4,x
    561  fe62		       29 08		      and	#8
    562  fe64		       f0 02		      beq	ds5
    563  fe66		       a9 26		      lda	#color_white^color_black	; White for white pieces
    564  fe68		       49 28	   ds5	      eor	#color_black	; Green for black pieces
    565  fe6a		       85 07		      sta	COLUP1
    566  fe6c		       85 02		      sta	WSYNC	; Row 1
    567  fe6e		       a5 80		      lda	even	; Check if row...
    568  fe70		       c5 88		      cmp	cursory	; ...equals row of cursor
    569  fe72		       08		      php		; Save Z flag...
    570  fe73		       68		      pla		; ...so it goes to bit 1
    571  fe74		       85 1d		      sta	ENAM0	; Enable missile if at right Y position
    572  fe76		       b5 8c		      lda	board,x	; Setup pointers to bitmaps for two pieces
    573  fe78		       29 07		      and	#7
    574  fe7a		       0a		      asl
    575  fe7b		       0a		      asl
    576  fe7c		       0a		      asl
    577  fe7d		       85 82		      sta	bitmap0
    578  fe7f		       b5 90		      lda	board+4,x
    579  fe81		       29 07		      and	#7
    580  fe83		       0a		      asl
    581  fe84		       0a		      asl
    582  fe85		       0a		      asl		; //Carry is zero after this instruction
    583  fe86		       85 83		      sta	bitmap1
    584  fe88		       8a		      txa
    585  fe89		       48		      pha
    586  fe8a		       a0 07		      ldy	#7	; Process the 7 lines of bitmap
    587  fe8c		       85 02	   ds3	      sta	WSYNC	; Row 2/5/8/11/14/17/20
    588  fe8e		       a6 82		      ldx	bitmap0
    589  fe90		       bd 0f ff 	      lda	pieces,x
    590  fe93		       85 1b		      sta	GRP0
    591  fe95		       a6 83		      ldx	bitmap1
    592  fe97		       bd 0f ff 	      lda	pieces,x
    593  fe9a		       85 1c		      sta	GRP1
    594  fe9c		       85 02		      sta	WSYNC
    595  fe9e		       85 02		      sta	WSYNC
    596  fea0		       e6 82		      inc	bitmap0
    597  fea2		       e6 83		      inc	bitmap1
    598  fea4		       88		      dey
    599  fea5		       d0 e5		      bne	ds3
    600  fea7		       84 1d		      sty	ENAM0	; Disable cursor
    601  fea9		       e6 80		      inc	even	; Increase current row
    602  feab		       68		      pla
    603  feac							;clc		  ; Carry is still zero//
    604  feac		       69 0a		      adc	#10	; Next row of board
    605  feae		       c9 50		      cmp	#80
    606  feb0		       90 84		      bcc	ds0
    607  feb2
    608  feb2							;
    609  feb2							; End of graphics (204 lines)
    610  feb2							;
    611  feb2		       a9 02		      lda	#2
    612  feb4		       85 02		      sta	WSYNC
    613  feb6		       85 01		      sta	VBLANK
    614  feb8
    615  feb8							;
    616  feb8							; Start overscan timer
    617  feb8							;
    618  feb8		       a9 2b		      lda	#43	; 37 lines * 76 = 2812 cycles / 64 = 43.9375
    619  feba		       8d 96 02 	      sta	TIM64T
    620  febd				   wait_overscan
    621  febd		       ad 84 02 	      lda	INTIM
    622  fec0		       d0 fb		      bne	wait_overscan
    623  fec2		       85 02		      sta	WSYNC
    624  fec4		       85 0d		      sta	PF0
    625  fec6		       85 0e		      sta	PF1
    626  fec8		       85 0f		      sta	PF2
    627  feca		       85 02		      sta	WSYNC
    628  fecc
    629  fecc		       e6 86		      inc	frame
    630  fece
    631  fece		       60		      rts
    632  fecf
 Free bytes section 1:  $31
    633  fecf					      echo	"Free bytes section 1: ",$ff00-*
    634  fecf
    635  ff00					      org	$ff00
    636  ff00				   fine_adjustment
    637  ff00		       70		      .byte.b	$70	; -7 
    638  ff01		       60		      .byte.b	$60	; -6 
    639  ff02		       50		      .byte.b	$50	; -5
    640  ff03		       40		      .byte.b	$40	; -4
    641  ff04		       30		      .byte.b	$30	; -3
    642  ff05		       20		      .byte.b	$20	; -2
    643  ff06		       10		      .byte.b	$10	; -1
    644  ff07		       00		      .byte.b	$00	; 0
    645  ff08		       f0		      .byte.b	$f0	; +1
    646  ff09		       e0		      .byte.b	$e0	; +2
    647  ff0a		       d0		      .byte.b	$d0	; +3
    648  ff0b		       c0		      .byte.b	$c0	; +4
    649  ff0c		       b0		      .byte.b	$b0	; +5
    650  ff0d		       a0		      .byte.b	$a0	; +6
    651  ff0e		       90		      .byte.b	$90	; +7
    652  ff0f
    653  ff0f				   pieces
    654  ff0f		       00 00 00 00*	      .byte.b	$00,$00,$00,$00,$00,$00,$00,$00
    655  ff17		       00 18 3c 3c*	      .byte.b	$00,$18,$3c,$3c,$18,$3c,$00,$00
    656  ff1f		       5a 7e 3c 3c*	      .byte.b	$5a,$7e,$3c,$3c,$7e,$7e,$00,$00
    657  ff27		       18 3c 3c 3c*	      .byte.b	$18,$3c,$3c,$3c,$18,$66,$00,$00
    658  ff2f		       5a 5a 24 3c*	      .byte.b	$5a,$5a,$24,$3c,$3c,$3c,$00,$00
    659  ff37		       70 58 7c 6e*	      .byte.b	$70,$58,$7c,$6e,$1e,$3e,$00,$00
    660  ff3f		       3c 6a 56 3c*	      .byte.b	$3c,$6a,$56,$3c,$3c,$3c,$00,$00
    661  ff47
    662  ff47							;
    663  ff47							; Read a coordinate choosen by cursor
    664  ff47							; Moves y to x, y contains new coordinate.
    665  ff47							;
    666  ff47				   read_coor
    667  ff47		       98		      tya
    668  ff48		       48		      pha
    669  ff49		       20 97 ff 	      jsr	read_coor2
    670  ff4c		       a8		      tay
    671  ff4d		       68		      pla
    672  ff4e		       aa		      tax
    673  ff4f		       60		      rts
    674  ff50
    675  ff50		       a0 00	   rc5	      ldy	#0
    676  ff52		       ad 80 02 	      lda	SWCHA	; Read current state of joystick
    677  ff55		       85 80		      sta	even
    678  ff57		       aa		      tax
    679  ff58		       45 89		      eor	pSWCHA
    680  ff5a		       86 89		      stx	pSWCHA
    681  ff5c		       49 ff		      eor	#$ff
    682  ff5e		       05 80		      ora	even	; Disable unchanged directions
    683  ff60		       30 0a		      bmi	rc0	; Jump if not going right
    684  ff62		       a6 87		      ldx	cursorx
    685  ff64		       e0 07		      cpx	#7
    686  ff66		       f0 04		      beq	rc0
    687  ff68		       e6 87		      inc	cursorx
    688  ff6a		       a0 08		      ldy	#8
    689  ff6c
    690  ff6c		       2a	   rc0	      rol		; Jump if not going left
    691  ff6d		       30 08		      bmi	rc1
    692  ff6f		       a6 87		      ldx	cursorx
    693  ff71		       f0 04		      beq	rc1
    694  ff73		       c6 87		      dec	cursorx
    695  ff75		       a0 08		      ldy	#8
    696  ff77
    697  ff77		       2a	   rc1	      rol		; Jump if not going down
    698  ff78		       30 0a		      bmi	rc2
    699  ff7a		       a6 88		      ldx	cursory
    700  ff7c		       e0 07		      cpx	#7
    701  ff7e		       f0 04		      beq	rc2
    702  ff80		       e6 88		      inc	cursory
    703  ff82		       a0 08		      ldy	#8
    704  ff84
    705  ff84		       2a	   rc2	      rol		; Jump if not going up
    706  ff85		       30 08		      bmi	rc3
    707  ff87		       a6 88		      ldx	cursory
    708  ff89		       f0 04		      beq	rc3
    709  ff8b		       c6 88		      dec	cursory
    710  ff8d		       a0 08		      ldy	#8
    711  ff8f		       a2 01	   rc3	      ldx	#$01
    712  ff91		       86 15		      stx	AUDC0
    713  ff93		       84 19		      sty	AUDV0
    714  ff95		       84 17		      sty	AUDF0
    715  ff97							;	 jmp read_coor2     ; Fall thru
    716  ff97							;
    717  ff97							; Read a coordinate in a
    718  ff97							;
    719  ff97				   read_coor2
    720  ff97		       20 a4 fd 	      jsr	kernel
    721  ff9a							;lda #0	    ; Kernel returns with a = 0
    722  ff9a		       85 19		      sta	AUDV0
    723  ff9c		       a5 0c		      lda	INPT4	; Read current state of button
    724  ff9e		       85 80		      sta	even
    725  ffa0		       aa		      tax
    726  ffa1		       45 8a		      eor	pINPT4
    727  ffa3		       86 8a		      stx	pINPT4
    728  ffa5		       49 ff		      eor	#$ff
    729  ffa7		       05 80		      ora	even	; Disable unchanged button
    730  ffa9		       30 a5		      bmi	rc5	; Jump if button not pressed
    731  ffab							;
    732  ffab							; Computer plays
    733  ffab							;
    734  ffab		       a2 03		      ldx	#$03
    735  ffad		       86 15		      stx	AUDC0
    736  ffaf		       a2 08		      ldx	#$08
    737  ffb1		       86 19		      stx	AUDV0
    738  ffb3		       86 17		      stx	AUDF0
    739  ffb5		       a5 88		      lda	cursory	; y_coor 
    740  ffb7		       0a		      asl		; *2
    741  ffb8		       0a		      asl		; *4
    742  ffb9		       65 88		      adc	cursory	; *5
    743  ffbb		       0a		      asl		; *10
    744  ffbc		       65 87		      adc	cursorx	; + x_coor
    745  ffbe		       60		      rts
    746  ffbf
    747  ffbf				  -	      else
    748  ffbf				  -kernel
    749  ffbf				  -	      jsr	headers
    750  ffbf				  -	      lda	#$38
    751  ffbf				  -	      sta	bitmap0
    752  ffbf				  -	      ldx	#0
    753  ffbf				  -kn0	      lda	bitmap0
    754  ffbf				  -	      sta	$0f
    755  ffbf				  -	      lda	#$20
    756  ffbf				  -	      sta	$0f
    757  ffbf				  -	      ldy	#8
    758  ffbf				  -kn1	      txa
    759  ffbf				  -	      pha
    760  ffbf				  -	      lda	board,x
    761  ffbf				  -	      tax
    762  ffbf				  -	      lda	letters,x
    763  ffbf				  -	      sta	$0f
    764  ffbf				  -	      lda	#$20
    765  ffbf				  -	      sta	$0f
    766  ffbf				  -	      pla
    767  ffbf				  -	      tax
    768  ffbf				  -	      inx
    769  ffbf				  -	      dey
    770  ffbf				  -	      bne	kn1
    771  ffbf				  -	      lda	bitmap0
    772  ffbf				  -	      sta	$0f
    773  ffbf				  -	      lda	#$0a
    774  ffbf				  -	      sta	$0f
    775  ffbf				  -	      dec	bitmap0
    776  ffbf				  -	      inx
    777  ffbf				  -	      inx
    778  ffbf				  -	      cpx	#80
    779  ffbf				  -	      bne	kn0
    780  ffbf				  -	      jsr	headers
    781  ffbf				  -	      rts
    782  ffbf				  -
    783  ffbf				  -headers
    784  ffbf				  -	      ldx	#0
    785  ffbf				  -kn2	      lda	header,x
    786  ffbf				  -	      sta	$0f
    787  ffbf				  -	      lda	#$20
    788  ffbf				  -	      sta	$0f
    789  ffbf				  -	      inx
    790  ffbf				  -	      cpx	#9
    791  ffbf				  -	      bne	kn2
    792  ffbf				  -	      lda	#$0a
    793  ffbf				  -	      sta	$0f
    794  ffbf				  -	      rts
    795  ffbf				  -
    796  ffbf				  -header
    797  ffbf				  -	      .byte	$20,$41,$42,$43,$44,$45,$46,$47
    798  ffbf				  -	      .byte	$48
    799  ffbf				  -
    800  ffbf				  -letters
    801  ffbf				  -	      .byte	$2e,$70,$72,$62,$71,$6e,$6b,$00
    802  ffbf				  -	      .byte	$00,$50,$52,$42,$51,$4e,$4b
    803  ffbf				  -
    804  ffbf				  -			;
    805  ffbf				  -			; Read a coordinate choosen by cursor
    806  ffbf				  -			; Moves y to x, y contains new coordinate.
    807  ffbf				  -			;
    808  ffbf				  -read_coor
    809  ffbf				  -	      tya
    810  ffbf				  -	      tax
    811  ffbf				  -	      jsr	readkey
    812  ffbf				  -	      sta	even
    813  ffbf				  -	      jsr	readkey
    814  ffbf				  -	      eor	#$ff	; 1-8 converted to $fe-$f7
    815  ffbf				  -	      clc
    816  ffbf				  -	      adc	#$09	; row
    817  ffbf				  -	      asl		; x2
    818  ffbf				  -	      sta	bitmap0
    819  ffbf				  -	      asl		; x4
    820  ffbf				  -	      asl		; x8
    821  ffbf				  -	      adc	bitmap0	; x10
    822  ffbf				  -	      adc	even	; +column
    823  ffbf				  -	      tay
    824  ffbf				  -	      dey
    825  ffbf				  -	      rts
    826  ffbf				  -
    827  ffbf				  -readkey
    828  ffbf				  -	      lda	$d011
    829  ffbf				  -	      beq	readkey
    830  ffbf				  -	      lda	$d010
    831  ffbf				  -	      and	#$0f
    832  ffbf				  -	      rts
    833  ffbf				  -
    834  ffbf					      endif
    835  ffbf
    836  ffbf				   initial
    837  ffbf		       02 05 03 04*	      .byte.b	$02,$05,$03,$04,$06,$03,$05,$02
    838  ffc7
    839  ffc7				   scores
    840  ffc7		       00 01 05 03*	      .byte.b	0,1,5,3,9,3
    841  ffcd
    842  ffcd				   offsets
    843  ffcd		       10 14 08 0c*	      .byte.b	16,20,8,12,8,0,8
    844  ffd4
    845  ffd4				   displacement
    846  ffd4		       eb ed f4 f8*	      .byte.b	-21,-19,-12,-8,8,12,19,21
    847  ffdc		       f6 0a ff 01	      .byte.b	-10,10,-1,1
    848  ffe0		       09 0b f7 f5	      .byte.b	9,11,-9,-11
    849  ffe4		       f5 f7 f6 ec	      .byte.b	-11,-9,-10,-20
    850  ffe8		       09 0b 0a 14	      .byte.b	9,11,10,20
    851  ffec
    852  ffec					      if	mode = atari
 Free bytes section 2:  $10
    853  ffec					      echo	"Free bytes section 2: ",$fffc-*
    854  ffec
    855  fffc					      org	$fffc
    856  fffc		       00 fc		      .word.w	START	; RESET
    857  fffe		       00 fc		      .word.w	START	; BRK
    858  10000					       endif
